; Function Attrs: nounwind uwtable
define dso_local void @pack_stepd_reconf(ptr noundef %0, i16 noundef zeroext %1) local_unnamed_addr #0 {
  %3 = icmp ugt i16 %1, 10239
  br i1 %3, label %4, label %15

4:                                                ; preds = %2
  %5 = load ptr, ptr getelementptr inbounds nuw (i8, ptr @slurm_conf, i64 272), align 8
  %6 = load i32, ptr getelementptr inbounds nuw (i8, ptr @slurm_conf, i64 280), align 8
  tail call void @packstr_array(ptr noundef %5, i32 noundef %6, ptr noundef %0) #4
  %7 = load ptr, ptr getelementptr inbounds nuw (i8, ptr @slurm_conf, i64 1184), align 8
  %.not = icmp eq ptr %7, null
  br i1 %.not, label %12, label %8

8:                                                ; preds = %4
  %9 = tail call i64 @strlen(ptr noundef nonnull dereferenceable(1) %7) #5
  %10 = trunc i64 %9 to i32
  %11 = add i32 %10, 1
  br label %12

12:                                               ; preds = %8, %4
  %.0 = phi i32 [ %11, %8 ], [ 0, %4 ]
  tail call void @packmem(ptr noundef %7, i32 noundef %.0, ptr noundef %0) #4
  %13 = load i32, ptr getelementptr inbounds nuw (i8, ptr @slurm_conf, i64 1216), align 8
  tail call void @pack32(i32 noundef %13, ptr noundef %0) #4
  %14 = load i16, ptr getelementptr inbounds nuw (i8, ptr @slurm_conf, i64 1220), align 4
  tail call void @pack16(i16 noundef zeroext %14, ptr noundef %0) #4
  br label %15

15:                                               ; preds = %12, %2
  ret void
}